target datalayout = "e-m:e-p270:32:32-p271:32:32-p272:64:64-i64:64-i128:128-f80:128-n8:16:32:64-S128"
target triple = "x86_64-pc-linux-gnu"

%struct.UCaseContext = type { ptr, i32, i32, i32, i32, i32, i8, i8, i8, i8 }

; Function Attrs: inlinehint mustprogress nounwind uwtable
define internal noundef signext i8 @_ZL9U_SUCCESS10UErrorCode(i32 noundef %0) #6 {
  %2 = alloca i32, align 4
  store i32 %0, ptr %2, align 4, !tbaa !30
  %3 = load i32, ptr %2, align 4, !tbaa !30
  %4 = icmp sle i32 %3, 0
  %5 = zext i1 %4 to i8
  ret i8 %5
}

; Function Attrs: mustprogress uwtable
define internal noundef i32 @_ZN6icu_7712_GLOBAL__N_126checkOverflowAndEditsErrorEiiPNS_5EditsER10UErrorCode(i32 noundef %0, i32 noundef %1, ptr noundef %2, ptr noundef nonnull align 4 dereferenceable(4) %3) #0 {
  %5 = alloca i32, align 4
  %6 = alloca i32, align 4
  %7 = alloca ptr, align 8
  %8 = alloca ptr, align 8
  store i32 %0, ptr %5, align 4, !tbaa !3
  store i32 %1, ptr %6, align 4, !tbaa !3
  store ptr %2, ptr %7, align 8, !tbaa !12
  store ptr %3, ptr %8, align 8, !tbaa !14
  %9 = load ptr, ptr %8, align 8, !tbaa !14
  %10 = load i32, ptr %9, align 4, !tbaa !30
  %11 = call noundef signext i8 @_ZL9U_SUCCESS10UErrorCode(i32 noundef %10)
  %12 = icmp ne i8 %11, 0
  br i1 %12, label %13, label %28

13:                                               ; preds = %4
  %14 = load i32, ptr %5, align 4, !tbaa !3
  %15 = load i32, ptr %6, align 4, !tbaa !3
  %16 = icmp sgt i32 %14, %15
  br i1 %16, label %17, label %19

17:                                               ; preds = %13
  %18 = load ptr, ptr %8, align 8, !tbaa !14
  store i32 15, ptr %18, align 4, !tbaa !30
  br label %27

19:                                               ; preds = %13
  %20 = load ptr, ptr %7, align 8, !tbaa !12
  %21 = icmp ne ptr %20, null
  br i1 %21, label %22, label %26

22:                                               ; preds = %19
  %23 = load ptr, ptr %7, align 8, !tbaa !12
  %24 = load ptr, ptr %8, align 8, !tbaa !14
  %25 = call noundef signext i8 @_ZNK6icu_775Edits11copyErrorToER10UErrorCode(ptr noundef nonnull align 8 dereferenceable(232) %23, ptr noundef nonnull align 4 dereferenceable(4) %24)
  br label %26

26:                                               ; preds = %22, %19
  br label %27

27:                                               ; preds = %26, %17
  br label %28

28:                                               ; preds = %27, %4
  %29 = load i32, ptr %5, align 4, !tbaa !3
  ret i32 %29
}

; Function Attrs: mustprogress uwtable
define i32 @ustrcase_internalToLower_77(i32 noundef %0, i32 noundef %1, ptr noundef %2, ptr noundef %3, i32 noundef %4, ptr noundef %5, i32 noundef %6, ptr noundef %7, ptr noundef nonnull align 4 dereferenceable(4) %8) #0 {
  %10 = alloca i32, align 4
  %11 = alloca i32, align 4
  %12 = alloca ptr, align 8
  %13 = alloca ptr, align 8
  %14 = alloca i32, align 4
  %15 = alloca ptr, align 8
  %16 = alloca i32, align 4
  %17 = alloca ptr, align 8
  %18 = alloca ptr, align 8
  %19 = alloca %struct.UCaseContext, align 8
  %20 = alloca i32, align 4
  store i32 %0, ptr %10, align 4, !tbaa !3
  store i32 %1, ptr %11, align 4, !tbaa !3
  store ptr %2, ptr %12, align 8, !tbaa !7
  store ptr %3, ptr %13, align 8, !tbaa !10
  store i32 %4, ptr %14, align 4, !tbaa !3
  store ptr %5, ptr %15, align 8, !tbaa !10
  store i32 %6, ptr %16, align 4, !tbaa !3
  store ptr %7, ptr %17, align 8, !tbaa !12
  store ptr %8, ptr %18, align 8, !tbaa !14
  call void @llvm.lifetime.start.p0(i64 32, ptr %19) #9
  call void @llvm.memset.p0.i64(ptr align 8 %19, i8 0, i64 32, i1 false)
  %21 = load ptr, ptr %15, align 8, !tbaa !10
  %22 = getelementptr inbounds nuw %struct.UCaseContext, ptr %19, i32 0, i32 0
  store ptr %21, ptr %22, align 8, !tbaa !15
  %23 = load i32, ptr %16, align 4, !tbaa !3
  %24 = getelementptr inbounds nuw %struct.UCaseContext, ptr %19, i32 0, i32 3
  store i32 %23, ptr %24, align 8, !tbaa !17
  call void @llvm.lifetime.start.p0(i64 4, ptr %20) #9
  %25 = load i32, ptr %10, align 4, !tbaa !3
  %26 = load i32, ptr %11, align 4, !tbaa !3
  %27 = load ptr, ptr %13, align 8, !tbaa !10
  %28 = load i32, ptr %14, align 4, !tbaa !3
  %29 = load ptr, ptr %15, align 8, !tbaa !10
  %30 = load i32, ptr %16, align 4, !tbaa !3
  %31 = load ptr, ptr %17, align 8, !tbaa !12
  %32 = load ptr, ptr %18, align 8, !tbaa !14
  %33 = call noundef i32 @_ZN6icu_7712_GLOBAL__N_17toLowerEijPDsiPKDsP12UCaseContextiiPNS_5EditsER10UErrorCode(i32 noundef %25, i32 noundef %26, ptr noundef %27, i32 noundef %28, ptr noundef %29, ptr noundef %19, i32 noundef 0, i32 noundef %30, ptr noundef %31, ptr noundef nonnull align 4 dereferenceable(4) %32)
  store i32 %33, ptr %20, align 4, !tbaa !3
  %34 = load i32, ptr %20, align 4, !tbaa !3
  %35 = load i32, ptr %14, align 4, !tbaa !3
  %36 = load ptr, ptr %17, align 8, !tbaa !12
  %37 = load ptr, ptr %18, align 8, !tbaa !14
  %38 = call noundef i32 @_ZN6icu_7712_GLOBAL__N_126checkOverflowAndEditsErrorEiiPNS_5EditsER10UErrorCode(i32 noundef %34, i32 noundef %35, ptr noundef %36, ptr noundef nonnull align 4 dereferenceable(4) %37)
  call void @llvm.lifetime.end.p0(i64 4, ptr %20) #9
  call void @llvm.lifetime.end.p0(i64 32, ptr %19) #9
  ret i32 %38
}