; Function Attrs: mustprogress uwtable
define noundef range(i32 0, -2147483648) i32 @ustrcase_internalToLower_77(i32 noundef %0, i32 noundef %1, ptr noundef readnone captures(none) %2, ptr noundef %3, i32 noundef %4, ptr noundef %5, i32 noundef %6, ptr noundef %7, ptr noundef nonnull align 4 dereferenceable(4) %8) local_unnamed_addr #0 {
  %10 = alloca %struct.UCaseContext, align 8
  call void @llvm.lifetime.start.p0(i64 32, ptr nonnull %10) #10
  %11 = getelementptr inbounds nuw i8, ptr %10, i64 8
  call void @llvm.memset.p0.i64(ptr noundef nonnull align 8 dereferenceable(24) %11, i8 0, i64 24, i1 false)
  store ptr %5, ptr %10, align 8, !tbaa !7
  %12 = getelementptr inbounds nuw i8, ptr %10, i64 16
  store i32 %6, ptr %12, align 8, !tbaa !11
  %13 = call fastcc noundef i32 @_ZN6icu_7712_GLOBAL__N_17toLowerEijPDsiPKDsP12UCaseContextiiPNS_5EditsER10UErrorCode(i32 noundef %0, i32 noundef %1, ptr noundef %3, i32 noundef %4, ptr noundef %5, ptr noundef nonnull %10, i32 noundef 0, i32 noundef %6, ptr noundef %7, ptr noundef nonnull align 4 dereferenceable(4) %8)
  %14 = load i32, ptr %8, align 4, !tbaa !3
  %15 = icmp sgt i32 %14, 0
  br i1 %15, label %_ZN6icu_7712_GLOBAL__N_126checkOverflowAndEditsErrorEiiPNS_5EditsER10UErrorCode.exit, label %16

16:                                               ; preds = %9
  %17 = icmp sgt i32 %13, %4
  br i1 %17, label %18, label %19

18:                                               ; preds = %16
  store i32 15, ptr %8, align 4, !tbaa !3
  br label %_ZN6icu_7712_GLOBAL__N_126checkOverflowAndEditsErrorEiiPNS_5EditsER10UErrorCode.exit

19:                                               ; preds = %16
  %.not7.i = icmp eq ptr %7, null
  br i1 %.not7.i, label %_ZN6icu_7712_GLOBAL__N_126checkOverflowAndEditsErrorEiiPNS_5EditsER10UErrorCode.exit, label %20

20:                                               ; preds = %19
  %21 = call noundef signext i8 @_ZNK6icu_775Edits11copyErrorToER10UErrorCode(ptr noundef nonnull align 8 dereferenceable(232) %7, ptr noundef nonnull align 4 dereferenceable(4) %8)
  br label %_ZN6icu_7712_GLOBAL__N_126checkOverflowAndEditsErrorEiiPNS_5EditsER10UErrorCode.exit

_ZN6icu_7712_GLOBAL__N_126checkOverflowAndEditsErrorEiiPNS_5EditsER10UErrorCode.exit: ; preds = %9, %18, %19, %20
  call void @llvm.lifetime.end.p0(i64 32, ptr nonnull %10) #10
  ret i32 %13
}